target datalayout = "e-m:e-p270:32:32-p271:32:32-p272:64:64-i64:64-i128:128-f80:128-n8:16:32:64-S128"
target triple = "x86_64-unknown-linux-gnu"

%class.rational = type { %class.mpq }
%class.mpq = type { %class.mpz, %class.mpz }
%class.mpz = type { i32, i8, ptr }
%class.vector.17 = type { ptr }
%"class.nla::nex_mul" = type { %"class.nla::nex", %class.rational, %class.vector.17 }
%"class.nla::nex" = type { ptr }
%"class.nla::nex_pow" = type <{ ptr, i32, [4 x i8] }>
%class.ptr_vector = type { %class.vector }
%class.vector = type { ptr }
%"class.nla::nex_sum" = type { %"class.nla::nex", %class.ptr_vector }

@.str = private unnamed_addr constant [111 x i8] c"generated/home/dtcxzyw/WorkSpace/Projects/compilers/llvm-opt-benchmark/bench/z3/z3/src/math/lp/nex_creator.cpp\00", align 1
@.str.1 = private unnamed_addr constant [29 x i8] c"UNEXPECTED CODE WAS REACHED.\00", align 1

; Function Attrs: mustprogress nounwind uwtable
define linkonce_odr hidden noundef nonnull align 8 dereferenceable(8) ptr @_ZNK6vectorIPN3nla3nexELb0EjEixEj(ptr noundef nonnull align 8 dereferenceable(8) %this, i32 noundef %idx) #5 comdat align 2 {
entry:
  %this.addr = alloca ptr, align 8
  %idx.addr = alloca i32, align 4
  store ptr %this, ptr %this.addr, align 8
  store i32 %idx, ptr %idx.addr, align 4
  %this1 = load ptr, ptr %this.addr, align 8
  %m_data = getelementptr inbounds %class.vector, ptr %this1, i32 0, i32 0
  %0 = load ptr, ptr %m_data, align 8
  %1 = load i32, ptr %idx.addr, align 4
  %idxprom = zext i32 %1 to i64
  %arrayidx = getelementptr inbounds ptr, ptr %0, i64 %idxprom
  ret ptr %arrayidx
}

; Function Attrs: mustprogress nounwind uwtable
define linkonce_odr hidden noundef nonnull align 8 dereferenceable(12) ptr @_ZNK6vectorIN3nla7nex_powELb1EjEixEj(ptr noundef nonnull align 8 dereferenceable(8) %this, i32 noundef %idx) #5 comdat align 2 {
entry:
  %this.addr = alloca ptr, align 8
  %idx.addr = alloca i32, align 4
  store ptr %this, ptr %this.addr, align 8
  store i32 %idx, ptr %idx.addr, align 4
  %this1 = load ptr, ptr %this.addr, align 8
  %m_data = getelementptr inbounds %class.vector.17, ptr %this1, i32 0, i32 0
  %0 = load ptr, ptr %m_data, align 8
  %1 = load i32, ptr %idx.addr, align 4
  %idxprom = zext i32 %1 to i64
  %arrayidx = getelementptr inbounds %"class.nla::nex_pow", ptr %0, i64 %idxprom
  ret ptr %arrayidx
}

; Function Attrs: mustprogress uwtable
define linkonce_odr hidden noundef ptr @_ZNK3nla7nex_sumixEj(ptr noundef nonnull align 8 dereferenceable(16) %this, i32 noundef %j) #4 comdat align 2 {
entry:
  %this.addr = alloca ptr, align 8
  %j.addr = alloca i32, align 4
  store ptr %this, ptr %this.addr, align 8
  store i32 %j, ptr %j.addr, align 4
  %this1 = load ptr, ptr %this.addr, align 8
  %m_children = getelementptr inbounds %"class.nla::nex_sum", ptr %this1, i32 0, i32 1
  %0 = load i32, ptr %j.addr, align 4
  %call = call noundef nonnull align 8 dereferenceable(8) ptr @_ZNK6vectorIPN3nla3nexELb0EjEixEj(ptr noundef nonnull align 8 dereferenceable(8) %m_children, i32 noundef %0)
  %1 = load ptr, ptr %call, align 8
  ret ptr %1
}

; Function Attrs: mustprogress nounwind uwtable
define linkonce_odr hidden noundef nonnull align 8 dereferenceable(16) ptr @_ZNK3nla3nex6to_sumEv(ptr noundef nonnull align 8 dereferenceable(8) %this) #5 comdat align 2 {
entry:
  %this.addr = alloca ptr, align 8
  store ptr %this, ptr %this.addr, align 8
  %this1 = load ptr, ptr %this.addr, align 8
  ret ptr %this1
}

; Function Attrs: mustprogress uwtable
define hidden noundef zeroext i1 @_ZNK3nla11nex_creator13gt_on_mul_mulERKNS_7nex_mulES3_(ptr noundef nonnull align 8 dereferenceable(176) %this, ptr noundef nonnull align 8 dereferenceable(48) %a, ptr noundef nonnull align 8 dereferenceable(48) %b) #4 align 2 {
entry:
  %this.addr = alloca ptr, align 8
  %a.addr = alloca ptr, align 8
  %b.addr = alloca ptr, align 8
  %a_deg = alloca i32, align 4
  %b_deg = alloca i32, align 4
  store ptr %this, ptr %this.addr, align 8
  store ptr %a, ptr %a.addr, align 8
  store ptr %b, ptr %b.addr, align 8
  %this1 = load ptr, ptr %this.addr, align 8
  %0 = load ptr, ptr %a.addr, align 8
  %vtable = load ptr, ptr %0, align 8
  %vfn = getelementptr inbounds ptr, ptr %vtable, i64 11
  %1 = load ptr, ptr %vfn, align 8
  %call = call noundef i32 %1(ptr noundef nonnull align 8 dereferenceable(48) %0)
  store i32 %call, ptr %a_deg, align 4
  %2 = load ptr, ptr %b.addr, align 8
  %vtable2 = load ptr, ptr %2, align 8
  %vfn3 = getelementptr inbounds ptr, ptr %vtable2, i64 11
  %3 = load ptr, ptr %vfn3, align 8
  %call4 = call noundef i32 %3(ptr noundef nonnull align 8 dereferenceable(48) %2)
  store i32 %call4, ptr %b_deg, align 4
  %4 = load i32, ptr %a_deg, align 4
  %5 = load i32, ptr %b_deg, align 4
  %cmp = icmp eq i32 %4, %5
  br i1 %cmp, label %cond.true, label %cond.false

cond.true:                                        ; preds = %entry
  %6 = load ptr, ptr %a.addr, align 8
  %7 = load ptr, ptr %b.addr, align 8
  %call5 = call noundef zeroext i1 @_ZNK3nla11nex_creator28gt_on_powers_mul_same_degreeINS_7nex_mulEEEbRKT_RKS2_(ptr noundef nonnull align 8 dereferenceable(176) %this1, ptr noundef nonnull align 8 dereferenceable(48) %6, ptr noundef nonnull align 8 dereferenceable(48) %7)
  br label %cond.end

cond.false:                                       ; preds = %entry
  %8 = load i32, ptr %a_deg, align 4
  %9 = load i32, ptr %b_deg, align 4
  %cmp6 = icmp ugt i32 %8, %9
  br label %cond.end

cond.end:                                         ; preds = %cond.false, %cond.true
  %cond = phi i1 [ %call5, %cond.true ], [ %cmp6, %cond.false ]
  ret i1 %cond
}

; Function Attrs: mustprogress nounwind uwtable
define linkonce_odr hidden noundef nonnull align 8 dereferenceable(48) ptr @_ZNK3nla3nex6to_mulEv(ptr noundef nonnull align 8 dereferenceable(8) %this) #5 comdat align 2 {
entry:
  %this.addr = alloca ptr, align 8
  store ptr %this, ptr %this.addr, align 8
  %this1 = load ptr, ptr %this.addr, align 8
  ret ptr %this1
}

; Function Attrs: mustprogress uwtable
define linkonce_odr hidden noundef zeroext i1 @_ZNK3nla11nex_creator2gtEPKNS_3nexES3_(ptr noundef nonnull align 8 dereferenceable(176) %this, ptr noundef %a, ptr noundef %b) #4 comdat align 2 {
entry:
  %this.addr = alloca ptr, align 8
  %a.addr = alloca ptr, align 8
  %b.addr = alloca ptr, align 8
  store ptr %this, ptr %this.addr, align 8
  store ptr %a, ptr %a.addr, align 8
  store ptr %b, ptr %b.addr, align 8
  %this1 = load ptr, ptr %this.addr, align 8
  %0 = load ptr, ptr %a.addr, align 8
  %1 = load ptr, ptr %b.addr, align 8
  %call = call noundef zeroext i1 @_ZNK3nla11nex_creator2gtERKNS_3nexES3_(ptr noundef nonnull align 8 dereferenceable(176) %this1, ptr noundef nonnull align 8 dereferenceable(8) %0, ptr noundef nonnull align 8 dereferenceable(8) %1)
  ret i1 %call
}

; Function Attrs: mustprogress nounwind uwtable
define linkonce_odr hidden noundef ptr @_ZNK3nla7nex_pow1eEv(ptr noundef nonnull align 8 dereferenceable(12) %this) #5 comdat align 2 {
entry:
  %this.addr = alloca ptr, align 8
  store ptr %this, ptr %this.addr, align 8
  %this1 = load ptr, ptr %this.addr, align 8
  %m_e = getelementptr inbounds %"class.nla::nex_pow", ptr %this1, i32 0, i32 0
  %0 = load ptr, ptr %m_e, align 8
  ret ptr %0
}

; Function Attrs: mustprogress uwtable
define linkonce_odr hidden noundef nonnull align 8 dereferenceable(12) ptr @_ZNK3nla7nex_mulixEj(ptr noundef nonnull align 8 dereferenceable(48) %this, i32 noundef %j) #4 comdat align 2 {
entry:
  %this.addr = alloca ptr, align 8
  %j.addr = alloca i32, align 4
  store ptr %this, ptr %this.addr, align 8
  store i32 %j, ptr %j.addr, align 4
  %this1 = load ptr, ptr %this.addr, align 8
  %m_children = getelementptr inbounds %"class.nla::nex_mul", ptr %this1, i32 0, i32 2
  %0 = load i32, ptr %j.addr, align 4
  %call = call noundef nonnull align 8 dereferenceable(12) ptr @_ZNK6vectorIN3nla7nex_powELb1EjEixEj(ptr noundef nonnull align 8 dereferenceable(8) %m_children, i32 noundef %0)
  ret ptr %call
}

; Function Attrs: mustprogress uwtable
define hidden noundef zeroext i1 @_ZNK3nla11nex_creator13gt_on_mul_nexERKNS_7nex_mulERKNS_3nexE(ptr noundef nonnull align 8 dereferenceable(176) %this, ptr noundef nonnull align 8 dereferenceable(48) %m, ptr noundef nonnull align 8 dereferenceable(8) %b) #4 align 2 {
entry:
  %retval = alloca i1, align 1
  %this.addr = alloca ptr, align 8
  %m.addr = alloca ptr, align 8
  %b.addr = alloca ptr, align 8
  store ptr %this, ptr %this.addr, align 8
  store ptr %m, ptr %m.addr, align 8
  store ptr %b, ptr %b.addr, align 8
  %this1 = load ptr, ptr %this.addr, align 8
  %0 = load ptr, ptr %b.addr, align 8
  %vtable = load ptr, ptr %0, align 8
  %vfn = getelementptr inbounds ptr, ptr %vtable, i64 1
  %1 = load ptr, ptr %vfn, align 8
  %call = call noundef i32 %1(ptr noundef nonnull align 8 dereferenceable(8) %0)
  switch i32 %call, label %sw.default [
    i32 0, label %sw.bb
    i32 1, label %sw.bb2
    i32 3, label %sw.bb9
    i32 2, label %sw.bb12
  ]

sw.bb:                                            ; preds = %entry
  store i1 false, ptr %retval, align 1
  br label %return

sw.bb2:                                           ; preds = %entry
  %2 = load ptr, ptr %m.addr, align 8
  %vtable3 = load ptr, ptr %2, align 8
  %vfn4 = getelementptr inbounds ptr, ptr %vtable3, i64 11
  %3 = load ptr, ptr %vfn4, align 8
  %call5 = call noundef i32 %3(ptr noundef nonnull align 8 dereferenceable(48) %2)
  %cmp = icmp ugt i32 %call5, 1
  br i1 %cmp, label %if.then, label %if.end

if.then:                                          ; preds = %sw.bb2
  store i1 true, ptr %retval, align 1
  br label %return

if.end:                                           ; preds = %sw.bb2
  %4 = load ptr, ptr %m.addr, align 8
  %call6 = call noundef nonnull align 8 dereferenceable(12) ptr @_ZNK3nla7nex_mulixEj(ptr noundef nonnull align 8 dereferenceable(48) %4, i32 noundef 0)
  %call7 = call noundef ptr @_ZNK3nla7nex_pow1eEv(ptr noundef nonnull align 8 dereferenceable(12) %call6)
  %5 = load ptr, ptr %b.addr, align 8
  %call8 = call noundef zeroext i1 @_ZNK3nla11nex_creator2gtEPKNS_3nexES3_(ptr noundef nonnull align 8 dereferenceable(176) %this1, ptr noundef %call7, ptr noundef %5)
  store i1 %call8, ptr %retval, align 1
  br label %return

sw.bb9:                                           ; preds = %entry
  %6 = load ptr, ptr %m.addr, align 8
  %7 = load ptr, ptr %b.addr, align 8
  %call10 = call noundef nonnull align 8 dereferenceable(48) ptr @_ZNK3nla3nex6to_mulEv(ptr noundef nonnull align 8 dereferenceable(8) %7)
  %call11 = call noundef zeroext i1 @_ZNK3nla11nex_creator13gt_on_mul_mulERKNS_7nex_mulES3_(ptr noundef nonnull align 8 dereferenceable(176) %this1, ptr noundef nonnull align 8 dereferenceable(48) %6, ptr noundef nonnull align 8 dereferenceable(48) %call10)
  store i1 %call11, ptr %retval, align 1
  br label %return

sw.bb12:                                          ; preds = %entry
  %8 = load ptr, ptr %m.addr, align 8
  %9 = load ptr, ptr %b.addr, align 8
  %call13 = call noundef nonnull align 8 dereferenceable(16) ptr @_ZNK3nla3nex6to_sumEv(ptr noundef nonnull align 8 dereferenceable(8) %9)
  %call14 = call noundef ptr @_ZNK3nla7nex_sumixEj(ptr noundef nonnull align 8 dereferenceable(16) %call13, i32 noundef 0)
  %call15 = call noundef zeroext i1 @_ZNK3nla11nex_creator13gt_on_mul_nexERKNS_7nex_mulERKNS_3nexE(ptr noundef nonnull align 8 dereferenceable(176) %this1, ptr noundef nonnull align 8 dereferenceable(48) %8, ptr noundef nonnull align 8 dereferenceable(8) %call14)
  store i1 %call15, ptr %retval, align 1
  br label %return

sw.default:                                       ; preds = %entry
  call void @_Z26notify_assertion_violationPKciS0_(ptr noundef @.str, i32 noundef 175, ptr noundef @.str.1)
  call void @exit(i32 noundef 114) #17
  unreachable

return:                                           ; preds = %sw.bb12, %sw.bb9, %if.end, %if.then, %sw.bb
  %10 = load i1, ptr %retval, align 1
  ret i1 %10
}