; Function Attrs: mustprogress uwtable
define hidden noundef zeroext i1 @_ZNK3nla11nex_creator13gt_on_mul_nexERKNS_7nex_mulERKNS_3nexE(ptr noundef nonnull align 8 dereferenceable(176) %this, ptr noundef nonnull align 8 dereferenceable(48) %m, ptr noundef nonnull align 8 dereferenceable(8) %b) local_unnamed_addr #3 align 2 {
entry:
  br label %tailrecurse

tailrecurse:                                      ; preds = %sw.bb12, %entry
  %b.tr = phi ptr [ %b, %entry ], [ %7, %sw.bb12 ]
  %vtable = load ptr, ptr %b.tr, align 8
  %vfn = getelementptr inbounds i8, ptr %vtable, i64 8
  %0 = load ptr, ptr %vfn, align 8
  %call = tail call noundef i32 %0(ptr noundef nonnull align 8 dereferenceable(8) %b.tr)
  switch i32 %call, label %sw.default [
    i32 0, label %return
    i32 1, label %sw.bb2
    i32 3, label %sw.bb9
    i32 2, label %sw.bb12
  ]

sw.bb2:                                           ; preds = %tailrecurse
  %vtable3 = load ptr, ptr %m, align 8
  %vfn4 = getelementptr inbounds i8, ptr %vtable3, i64 88
  %1 = load ptr, ptr %vfn4, align 8
  %call5 = tail call noundef i32 %1(ptr noundef nonnull align 8 dereferenceable(48) %m)
  %cmp = icmp ugt i32 %call5, 1
  br i1 %cmp, label %return, label %if.end

if.end:                                           ; preds = %sw.bb2
  %m_children.i = getelementptr inbounds i8, ptr %m, i64 40
  %2 = load ptr, ptr %m_children.i, align 8
  %3 = load ptr, ptr %2, align 8
  %call.i = tail call noundef zeroext i1 @_ZNK3nla11nex_creator2gtERKNS_3nexES3_(ptr noundef nonnull align 8 dereferenceable(176) %this, ptr noundef nonnull align 8 dereferenceable(8) %3, ptr noundef nonnull align 8 dereferenceable(8) %b.tr)
  br label %return

sw.bb9:                                           ; preds = %tailrecurse
  %vtable.i = load ptr, ptr %m, align 8
  %vfn.i = getelementptr inbounds i8, ptr %vtable.i, i64 88
  %4 = load ptr, ptr %vfn.i, align 8
  %call.i7 = tail call noundef i32 %4(ptr noundef nonnull align 8 dereferenceable(48) %m)
  %vtable2.i = load ptr, ptr %b.tr, align 8
  %vfn3.i = getelementptr inbounds i8, ptr %vtable2.i, i64 88
  %5 = load ptr, ptr %vfn3.i, align 8
  %call4.i = tail call noundef i32 %5(ptr noundef nonnull align 8 dereferenceable(48) %b.tr)
  %cmp.i = icmp eq i32 %call.i7, %call4.i
  br i1 %cmp.i, label %cond.true.i, label %cond.false.i

cond.true.i:                                      ; preds = %sw.bb9
  %call5.i = tail call noundef zeroext i1 @_ZNK3nla11nex_creator28gt_on_powers_mul_same_degreeINS_7nex_mulEEEbRKT_RKS2_(ptr noundef nonnull align 8 dereferenceable(176) %this, ptr noundef nonnull align 8 dereferenceable(48) %m, ptr noundef nonnull align 8 dereferenceable(48) %b.tr)
  br label %return

cond.false.i:                                     ; preds = %sw.bb9
  %cmp6.i = icmp ugt i32 %call.i7, %call4.i
  br label %return

sw.bb12:                                          ; preds = %tailrecurse
  %m_children.i8 = getelementptr inbounds i8, ptr %b.tr, i64 8
  %6 = load ptr, ptr %m_children.i8, align 8
  %7 = load ptr, ptr %6, align 8
  br label %tailrecurse

sw.default:                                       ; preds = %tailrecurse
  tail call void @_Z26notify_assertion_violationPKciS0_(ptr noundef nonnull @.str, i32 noundef 175, ptr noundef nonnull @.str.1)
  tail call void @exit(i32 noundef 114) #20
  unreachable

return:                                           ; preds = %tailrecurse, %cond.false.i, %cond.true.i, %sw.bb2, %if.end
  %retval.0 = phi i1 [ %call.i, %if.end ], [ true, %sw.bb2 ], [ %call5.i, %cond.true.i ], [ %cmp6.i, %cond.false.i ], [ false, %tailrecurse ]
  ret i1 %retval.0
}